; Function Attrs: nounwind uwtable
define hidden i32 @ssl3_send_server_certificate(ptr noundef %0) local_unnamed_addr #0 {
  %2 = getelementptr inbounds nuw i8, ptr %0, i64 52
  %3 = load i32, ptr %2, align 4, !tbaa !43
  %4 = icmp eq i32 %3, 8512
  br i1 %4, label %5, label %8

5:                                                ; preds = %1
  %6 = tail call i32 @ssl3_output_cert_chain(ptr noundef nonnull %0) #10
  %.not = icmp eq i32 %6, 0
  br i1 %.not, label %14, label %7

7:                                                ; preds = %5
  store i32 8513, ptr %2, align 4, !tbaa !43
  br label %8

8:                                                ; preds = %7, %1
  %9 = getelementptr inbounds nuw i8, ptr %0, i64 8
  %10 = load ptr, ptr %9, align 8, !tbaa !64
  %11 = getelementptr inbounds nuw i8, ptr %10, i64 112
  %12 = load ptr, ptr %11, align 8, !tbaa !65
  %13 = tail call i32 %12(ptr noundef nonnull %0) #10
  br label %14

14:                                               ; preds = %5, %8
  %.0 = phi i32 [ %13, %8 ], [ 0, %5 ]
  ret i32 %.0
}